; Function Attrs: nounwind uwtable
define i32 @Sfm_DecMffcArea(ptr noundef readonly captures(none) %0, ptr noundef readonly captures(none) %1) local_unnamed_addr #2 {
  %3 = getelementptr i8, ptr %1, i64 4
  %.val1113 = load i32, ptr %3, align 4, !tbaa !85
  %4 = icmp sgt i32 %.val1113, 0
  br i1 %4, label %.lr.ph, label %.critedge

.lr.ph:                                           ; preds = %2
  %5 = getelementptr i8, ptr %1, i64 8
  %6 = getelementptr i8, ptr %0, i64 32
  br label %7

7:                                                ; preds = %.lr.ph, %23
  %.val1117 = phi i32 [ %.val1113, %.lr.ph ], [ %.val11, %23 ]
  %indvars.iv = phi i64 [ 0, %.lr.ph ], [ %indvars.iv.next, %23 ]
  %.015 = phi i32 [ 0, %.lr.ph ], [ %.1, %23 ]
  %.val12 = load ptr, ptr %5, align 8, !tbaa !84
  %8 = getelementptr inbounds nuw i32, ptr %.val12, i64 %indvars.iv
  %9 = load i32, ptr %8, align 4, !tbaa !96
  %.val = load ptr, ptr %6, align 8, !tbaa !78
  %10 = getelementptr i8, ptr %.val, i64 8
  %.val.val = load ptr, ptr %10, align 8, !tbaa !80
  %11 = sext i32 %9 to i64
  %12 = getelementptr inbounds ptr, ptr %.val.val, i64 %11
  %13 = load ptr, ptr %12, align 8, !tbaa !81
  %14 = icmp eq ptr %13, null
  br i1 %14, label %23, label %15

15:                                               ; preds = %7
  %16 = getelementptr inbounds nuw i8, ptr %13, i64 56
  %17 = load ptr, ptr %16, align 8, !tbaa !119
  %18 = tail call double @Mio_GateReadArea(ptr noundef %17) #25
  %19 = fptrunc double %18 to float
  %20 = fmul float %19, 1.000000e+03
  %21 = fptosi float %20 to i32
  %22 = add nsw i32 %.015, %21
  %.val11.pre = load i32, ptr %3, align 4, !tbaa !85
  br label %23

23:                                               ; preds = %15, %7
  %.val11 = phi i32 [ %.val1117, %7 ], [ %.val11.pre, %15 ]
  %.1 = phi i32 [ %.015, %7 ], [ %22, %15 ]
  %indvars.iv.next = add nuw nsw i64 %indvars.iv, 1
  %24 = sext i32 %.val11 to i64
  %25 = icmp slt i64 %indvars.iv.next, %24
  br i1 %25, label %7, label %.critedge, !llvm.loop !120

.critedge:                                        ; preds = %23, %2
  %.0.lcssa = phi i32 [ 0, %2 ], [ %.1, %23 ]
  ret i32 %.0.lcssa
}